target datalayout = "e-m:e-p270:32:32-p271:32:32-p272:64:64-i64:64-i128:128-f80:128-n8:16:32:64-S128"
target triple = "x86_64-pc-linux-gnu"

%struct.jpeg_decompress_struct = type { ptr, ptr, ptr, ptr, i32, i32, ptr, i32, i32, i32, i32, i32, i32, i32, double, i32, i32, i32, i32, i32, i32, i32, i32, i32, i32, i32, i32, i32, i32, i32, i32, i32, i32, ptr, i32, i32, i32, i32, i32, ptr, [4 x ptr], [4 x ptr], [4 x ptr], i32, ptr, i32, i32, [16 x i8], [16 x i8], [16 x i8], i32, i32, i8, i8, i8, i16, i16, i32, i8, i32, ptr, i32, i32, i32, i32, ptr, i32, [4 x ptr], i32, i32, i32, [10 x i32], i32, i32, i32, i32, i32, ptr, ptr, ptr, ptr, ptr, ptr, ptr, ptr, ptr, ptr, ptr }
%struct.my_merged_upsampler = type { %struct.jpeg_upsampler, ptr, ptr, ptr, ptr, ptr, ptr, i32, i32, i32 }
%struct.jpeg_upsampler = type { ptr, ptr, ptr, ptr, i32 }

; Function Attrs: nounwind uwtable
define internal void @merged_2v_upsample(ptr noundef %0, ptr noundef %1, ptr noundef %2, i32 noundef %3, ptr noundef %4, ptr noundef %5, i32 noundef %6) #0 {
  %8 = alloca ptr, align 8
  %9 = alloca ptr, align 8
  %10 = alloca ptr, align 8
  %11 = alloca i32, align 4
  %12 = alloca ptr, align 8
  %13 = alloca ptr, align 8
  %14 = alloca i32, align 4
  %15 = alloca ptr, align 8
  %16 = alloca [2 x ptr], align 16
  %17 = alloca i32, align 4
  %18 = alloca i32, align 4
  store ptr %0, ptr %8, align 8
  store ptr %1, ptr %9, align 8
  store ptr %2, ptr %10, align 8
  store i32 %3, ptr %11, align 4
  store ptr %4, ptr %12, align 8
  store ptr %5, ptr %13, align 8
  store i32 %6, ptr %14, align 4
  %19 = load ptr, ptr %8, align 8
  %20 = getelementptr inbounds %struct.jpeg_decompress_struct, ptr %19, i32 0, i32 85
  %21 = load ptr, ptr %20, align 8
  store ptr %21, ptr %15, align 8
  %22 = load ptr, ptr %15, align 8
  %23 = getelementptr inbounds %struct.my_merged_upsampler, ptr %22, i32 0, i32 7
  %24 = load i32, ptr %23, align 8
  %25 = icmp ne i32 %24, 0
  br i1 %25, label %26, label %50

26:                                               ; preds = %7
  %27 = load ptr, ptr %15, align 8
  %28 = getelementptr inbounds %struct.my_merged_upsampler, ptr %27, i32 0, i32 8
  %29 = load i32, ptr %28, align 4
  store i32 %29, ptr %18, align 4
  %30 = load ptr, ptr %8, align 8
  %31 = getelementptr inbounds %struct.jpeg_decompress_struct, ptr %30, i32 0, i32 11
  %32 = load i32, ptr %31, align 8
  %33 = icmp eq i32 %32, 16
  br i1 %33, label %34, label %39

34:                                               ; preds = %26
  %35 = load ptr, ptr %8, align 8
  %36 = getelementptr inbounds %struct.jpeg_decompress_struct, ptr %35, i32 0, i32 27
  %37 = load i32, ptr %36, align 8
  %38 = mul i32 %37, 2
  store i32 %38, ptr %18, align 4
  br label %39

39:                                               ; preds = %34, %26
  %40 = load ptr, ptr %15, align 8
  %41 = getelementptr inbounds %struct.my_merged_upsampler, ptr %40, i32 0, i32 6
  %42 = load ptr, ptr %12, align 8
  %43 = load ptr, ptr %13, align 8
  %44 = load i32, ptr %43, align 4
  %45 = zext i32 %44 to i64
  %46 = getelementptr inbounds ptr, ptr %42, i64 %45
  %47 = load i32, ptr %18, align 4
  call void @jcopy_sample_rows(ptr noundef %41, i32 noundef 0, ptr noundef %46, i32 noundef 0, i32 noundef 1, i32 noundef %47)
  store i32 1, ptr %17, align 4
  %48 = load ptr, ptr %15, align 8
  %49 = getelementptr inbounds %struct.my_merged_upsampler, ptr %48, i32 0, i32 7
  store i32 0, ptr %49, align 8
  br label %105

50:                                               ; preds = %7
  store i32 2, ptr %17, align 4
  %51 = load i32, ptr %17, align 4
  %52 = load ptr, ptr %15, align 8
  %53 = getelementptr inbounds %struct.my_merged_upsampler, ptr %52, i32 0, i32 9
  %54 = load i32, ptr %53, align 8
  %55 = icmp ugt i32 %51, %54
  br i1 %55, label %56, label %60

56:                                               ; preds = %50
  %57 = load ptr, ptr %15, align 8
  %58 = getelementptr inbounds %struct.my_merged_upsampler, ptr %57, i32 0, i32 9
  %59 = load i32, ptr %58, align 8
  store i32 %59, ptr %17, align 4
  br label %60

60:                                               ; preds = %56, %50
  %61 = load ptr, ptr %13, align 8
  %62 = load i32, ptr %61, align 4
  %63 = load i32, ptr %14, align 4
  %64 = sub i32 %63, %62
  store i32 %64, ptr %14, align 4
  %65 = load i32, ptr %17, align 4
  %66 = load i32, ptr %14, align 4
  %67 = icmp ugt i32 %65, %66
  br i1 %67, label %68, label %70

68:                                               ; preds = %60
  %69 = load i32, ptr %14, align 4
  store i32 %69, ptr %17, align 4
  br label %70

70:                                               ; preds = %68, %60
  %71 = load ptr, ptr %12, align 8
  %72 = load ptr, ptr %13, align 8
  %73 = load i32, ptr %72, align 4
  %74 = zext i32 %73 to i64
  %75 = getelementptr inbounds ptr, ptr %71, i64 %74
  %76 = load ptr, ptr %75, align 8
  %77 = getelementptr inbounds [2 x ptr], ptr %16, i64 0, i64 0
  store ptr %76, ptr %77, align 16
  %78 = load i32, ptr %17, align 4
  %79 = icmp ugt i32 %78, 1
  br i1 %79, label %80, label %89

80:                                               ; preds = %70
  %81 = load ptr, ptr %12, align 8
  %82 = load ptr, ptr %13, align 8
  %83 = load i32, ptr %82, align 4
  %84 = add i32 %83, 1
  %85 = zext i32 %84 to i64
  %86 = getelementptr inbounds ptr, ptr %81, i64 %85
  %87 = load ptr, ptr %86, align 8
  %88 = getelementptr inbounds [2 x ptr], ptr %16, i64 0, i64 1
  store ptr %87, ptr %88, align 8
  br label %96

89:                                               ; preds = %70
  %90 = load ptr, ptr %15, align 8
  %91 = getelementptr inbounds %struct.my_merged_upsampler, ptr %90, i32 0, i32 6
  %92 = load ptr, ptr %91, align 8
  %93 = getelementptr inbounds [2 x ptr], ptr %16, i64 0, i64 1
  store ptr %92, ptr %93, align 8
  %94 = load ptr, ptr %15, align 8
  %95 = getelementptr inbounds %struct.my_merged_upsampler, ptr %94, i32 0, i32 7
  store i32 1, ptr %95, align 8
  br label %96

96:                                               ; preds = %89, %80
  %97 = load ptr, ptr %15, align 8
  %98 = getelementptr inbounds %struct.my_merged_upsampler, ptr %97, i32 0, i32 1
  %99 = load ptr, ptr %98, align 8
  %100 = load ptr, ptr %8, align 8
  %101 = load ptr, ptr %9, align 8
  %102 = load ptr, ptr %10, align 8
  %103 = load i32, ptr %102, align 4
  %104 = getelementptr inbounds [2 x ptr], ptr %16, i64 0, i64 0
  call void %99(ptr noundef %100, ptr noundef %101, i32 noundef %103, ptr noundef %104)
  br label %105

105:                                              ; preds = %96, %39
  %106 = load i32, ptr %17, align 4
  %107 = load ptr, ptr %13, align 8
  %108 = load i32, ptr %107, align 4
  %109 = add i32 %108, %106
  store i32 %109, ptr %107, align 4
  %110 = load i32, ptr %17, align 4
  %111 = load ptr, ptr %15, align 8
  %112 = getelementptr inbounds %struct.my_merged_upsampler, ptr %111, i32 0, i32 9
  %113 = load i32, ptr %112, align 8
  %114 = sub i32 %113, %110
  store i32 %114, ptr %112, align 8
  %115 = load ptr, ptr %15, align 8
  %116 = getelementptr inbounds %struct.my_merged_upsampler, ptr %115, i32 0, i32 7
  %117 = load i32, ptr %116, align 8
  %118 = icmp ne i32 %117, 0
  br i1 %118, label %123, label %119

119:                                              ; preds = %105
  %120 = load ptr, ptr %10, align 8
  %121 = load i32, ptr %120, align 4
  %122 = add i32 %121, 1
  store i32 %122, ptr %120, align 4
  br label %123

123:                                              ; preds = %119, %105
  ret void
}