; Function Attrs: nounwind uwtable
define internal void @merged_2v_upsample(ptr noundef %0, ptr noundef %1, ptr nocapture noundef %2, i32 %3, ptr noundef %4, ptr nocapture noundef %5, i32 noundef %6) #0 {
  %8 = alloca [2 x ptr], align 16
  %9 = getelementptr inbounds i8, ptr %0, i64 608
  %10 = load ptr, ptr %9, align 8
  %11 = getelementptr inbounds i8, ptr %10, i64 88
  %12 = load i32, ptr %11, align 8
  %.not = icmp eq i32 %12, 0
  br i1 %.not, label %28, label %13

13:                                               ; preds = %7
  %14 = getelementptr inbounds i8, ptr %10, i64 92
  %15 = load i32, ptr %14, align 4
  %16 = getelementptr inbounds i8, ptr %0, i64 64
  %17 = load i32, ptr %16, align 8
  %18 = icmp eq i32 %17, 16
  br i1 %18, label %19, label %23

19:                                               ; preds = %13
  %20 = getelementptr inbounds i8, ptr %0, i64 136
  %21 = load i32, ptr %20, align 8
  %22 = shl i32 %21, 1
  br label %23

23:                                               ; preds = %19, %13
  %.0 = phi i32 [ %22, %19 ], [ %15, %13 ]
  %24 = getelementptr inbounds i8, ptr %10, i64 80
  %25 = load i32, ptr %5, align 4
  %26 = zext i32 %25 to i64
  %27 = getelementptr inbounds ptr, ptr %4, i64 %26
  tail call void @jcopy_sample_rows(ptr noundef nonnull %24, i32 noundef 0, ptr noundef %27, i32 noundef 0, i32 noundef 1, i32 noundef %.0) #5
  store i32 0, ptr %11, align 8
  br label %50

28:                                               ; preds = %7
  %29 = getelementptr inbounds i8, ptr %10, i64 96
  %30 = load i32, ptr %29, align 8
  %31 = load i32, ptr %5, align 4
  %32 = sub i32 %6, %31
  %spec.select = tail call i32 @llvm.umin.i32(i32 %30, i32 %32)
  %.1 = tail call i32 @llvm.umin.i32(i32 %spec.select, i32 2)
  %33 = zext i32 %31 to i64
  %34 = getelementptr inbounds ptr, ptr %4, i64 %33
  %35 = load ptr, ptr %34, align 8
  store ptr %35, ptr %8, align 16
  %36 = icmp ugt i32 %spec.select, 1
  br i1 %36, label %37, label %42

37:                                               ; preds = %28
  %38 = add i32 %31, 1
  %39 = zext i32 %38 to i64
  %40 = getelementptr inbounds ptr, ptr %4, i64 %39
  %41 = load ptr, ptr %40, align 8
  br label %45

42:                                               ; preds = %28
  %43 = getelementptr inbounds i8, ptr %10, i64 80
  %44 = load ptr, ptr %43, align 8
  store i32 1, ptr %11, align 8
  br label %45

45:                                               ; preds = %42, %37
  %.sink = phi ptr [ %41, %37 ], [ %44, %42 ]
  %46 = getelementptr inbounds i8, ptr %8, i64 8
  store ptr %.sink, ptr %46, align 8
  %47 = getelementptr inbounds i8, ptr %10, i64 40
  %48 = load ptr, ptr %47, align 8
  %49 = load i32, ptr %2, align 4
  call void %48(ptr noundef nonnull %0, ptr noundef %1, i32 noundef %49, ptr noundef nonnull %8) #5
  br label %50

50:                                               ; preds = %45, %23
  %.2 = phi i32 [ 1, %23 ], [ %.1, %45 ]
  %51 = load i32, ptr %5, align 4
  %52 = add i32 %51, %.2
  store i32 %52, ptr %5, align 4
  %53 = getelementptr inbounds i8, ptr %10, i64 96
  %54 = load i32, ptr %53, align 8
  %55 = sub i32 %54, %.2
  store i32 %55, ptr %53, align 8
  %56 = load i32, ptr %11, align 8
  %.not37 = icmp eq i32 %56, 0
  br i1 %.not37, label %57, label %60

57:                                               ; preds = %50
  %58 = load i32, ptr %2, align 4
  %59 = add i32 %58, 1
  store i32 %59, ptr %2, align 4
  br label %60

60:                                               ; preds = %57, %50
  ret void
}